; ModuleID = '4/1022.c'
source_filename = "4/1022.c"
target datalayout = "e-m:e-p270:32:32-p271:32:32-p272:64:64-i64:64-f80:128-n8:16:32:64-S128"
target triple = "x86_64-pc-linux-gnu"

@.str = private unnamed_addr constant [5 x i8] c"%d%d\00", align 1
@.str.1 = private unnamed_addr constant [3 x i8] c"%d\00", align 1
@.str.2 = private unnamed_addr constant [4 x i8] c"%d\0A\00", align 1

; Function Attrs: noinline nounwind uwtable
define dso_local i32 @main() #0 {
  %1 = alloca i32, align 4
  %2 = alloca i32, align 4
  %3 = alloca i32, align 4
  %4 = alloca [100 x [100 x i32]], align 16
  %5 = alloca i32, align 4
  %6 = alloca i32, align 4
  %7 = alloca i32, align 4
  %8 = alloca i32, align 4
  %9 = alloca i32, align 4
  store i32 0, i32* %1, align 4
  %10 = call i32 (i8*, ...) @__isoc99_scanf(i8* getelementptr inbounds ([5 x i8], [5 x i8]* @.str, i64 0, i64 0), i32* %2, i32* %3)
  store i32 0, i32* %5, align 4
  br label %11

11:                                               ; preds = %32, %0
  %12 = load i32, i32* %5, align 4
  %13 = load i32, i32* %2, align 4
  %14 = icmp slt i32 %12, %13
  br i1 %14, label %15, label %35

15:                                               ; preds = %11
  store i32 0, i32* %6, align 4
  br label %16

16:                                               ; preds = %28, %15
  %17 = load i32, i32* %6, align 4
  %18 = load i32, i32* %3, align 4
  %19 = icmp slt i32 %17, %18
  br i1 %19, label %20, label %31

20:                                               ; preds = %16
  %21 = load i32, i32* %5, align 4
  %22 = sext i32 %21 to i64
  %23 = getelementptr inbounds [100 x [100 x i32]], [100 x [100 x i32]]* %4, i64 0, i64 %22
  %24 = load i32, i32* %6, align 4
  %25 = sext i32 %24 to i64
  %26 = getelementptr inbounds [100 x i32], [100 x i32]* %23, i64 0, i64 %25
  %27 = call i32 (i8*, ...) @__isoc99_scanf(i8* getelementptr inbounds ([3 x i8], [3 x i8]* @.str.1, i64 0, i64 0), i32* %26)
  br label %28

28:                                               ; preds = %20
  %29 = load i32, i32* %6, align 4
  %30 = add nsw i32 %29, 1
  store i32 %30, i32* %6, align 4
  br label %16

31:                                               ; preds = %16
  br label %32

32:                                               ; preds = %31
  %33 = load i32, i32* %5, align 4
  %34 = add nsw i32 %33, 1
  store i32 %34, i32* %5, align 4
  br label %11

35:                                               ; preds = %11
  %36 = load i32, i32* %2, align 4
  %37 = load i32, i32* %3, align 4
  %38 = icmp sgt i32 %36, %37
  br i1 %38, label %39, label %42

39:                                               ; preds = %35
  %40 = load i32, i32* %2, align 4
  store i32 %40, i32* %8, align 4
  %41 = load i32, i32* %3, align 4
  store i32 %41, i32* %7, align 4
  br label %45

42:                                               ; preds = %35
  %43 = load i32, i32* %3, align 4
  store i32 %43, i32* %8, align 4
  %44 = load i32, i32* %2, align 4
  store i32 %44, i32* %7, align 4
  br label %45

45:                                               ; preds = %42, %39
  store i32 0, i32* %9, align 4
  br label %46

46:                                               ; preds = %70, %45
  %47 = load i32, i32* %9, align 4
  %48 = load i32, i32* %7, align 4
  %49 = icmp slt i32 %47, %48
  br i1 %49, label %50, label %73

50:                                               ; preds = %46
  store i32 0, i32* %5, align 4
  br label %51

51:                                               ; preds = %66, %50
  %52 = load i32, i32* %5, align 4
  %53 = load i32, i32* %9, align 4
  %54 = icmp sle i32 %52, %53
  br i1 %54, label %55, label %69

55:                                               ; preds = %51
  %56 = load i32, i32* %5, align 4
  %57 = sext i32 %56 to i64
  %58 = getelementptr inbounds [100 x [100 x i32]], [100 x [100 x i32]]* %4, i64 0, i64 %57
  %59 = load i32, i32* %9, align 4
  %60 = load i32, i32* %5, align 4
  %61 = sub nsw i32 %59, %60
  %62 = sext i32 %61 to i64
  %63 = getelementptr inbounds [100 x i32], [100 x i32]* %58, i64 0, i64 %62
  %64 = load i32, i32* %63, align 4
  %65 = call i32 (i8*, ...) @printf(i8* getelementptr inbounds ([4 x i8], [4 x i8]* @.str.2, i64 0, i64 0), i32 %64)
  br label %66

66:                                               ; preds = %55
  %67 = load i32, i32* %5, align 4
  %68 = add nsw i32 %67, 1
  store i32 %68, i32* %5, align 4
  br label %51

69:                                               ; preds = %51
  br label %70

70:                                               ; preds = %69
  %71 = load i32, i32* %9, align 4
  %72 = add nsw i32 %71, 1
  store i32 %72, i32* %9, align 4
  br label %46

73:                                               ; preds = %46
  %74 = load i32, i32* %2, align 4
  %75 = load i32, i32* %3, align 4
  %76 = icmp sgt i32 %74, %75
  br i1 %76, label %77, label %112

77:                                               ; preds = %73
  store i32 0, i32* %9, align 4
  br label %78

78:                                               ; preds = %108, %77
  %79 = load i32, i32* %9, align 4
  %80 = load i32, i32* %8, align 4
  %81 = load i32, i32* %7, align 4
  %82 = sub nsw i32 %80, %81
  %83 = icmp slt i32 %79, %82
  br i1 %83, label %84, label %111

84:                                               ; preds = %78
  store i32 0, i32* %5, align 4
  br label %85

85:                                               ; preds = %104, %84
  %86 = load i32, i32* %5, align 4
  %87 = load i32, i32* %7, align 4
  %88 = icmp slt i32 %86, %87
  br i1 %88, label %89, label %107

89:                                               ; preds = %85
  %90 = load i32, i32* %5, align 4
  %91 = load i32, i32* %9, align 4
  %92 = add nsw i32 %90, %91
  %93 = add nsw i32 %92, 1
  %94 = sext i32 %93 to i64
  %95 = getelementptr inbounds [100 x [100 x i32]], [100 x [100 x i32]]* %4, i64 0, i64 %94
  %96 = load i32, i32* %7, align 4
  %97 = load i32, i32* %5, align 4
  %98 = sub nsw i32 %96, %97
  %99 = sub nsw i32 %98, 1
  %100 = sext i32 %99 to i64
  %101 = getelementptr inbounds [100 x i32], [100 x i32]* %95, i64 0, i64 %100
  %102 = load i32, i32* %101, align 4
  %103 = call i32 (i8*, ...) @printf(i8* getelementptr inbounds ([4 x i8], [4 x i8]* @.str.2, i64 0, i64 0), i32 %102)
  br label %104

104:                                              ; preds = %89
  %105 = load i32, i32* %5, align 4
  %106 = add nsw i32 %105, 1
  store i32 %106, i32* %5, align 4
  br label %85

107:                                              ; preds = %85
  br label %108

108:                                              ; preds = %107
  %109 = load i32, i32* %9, align 4
  %110 = add nsw i32 %109, 1
  store i32 %110, i32* %9, align 4
  br label %78

111:                                              ; preds = %78
  br label %145

112:                                              ; preds = %73
  store i32 0, i32* %9, align 4
  br label %113

113:                                              ; preds = %141, %112
  %114 = load i32, i32* %9, align 4
  %115 = load i32, i32* %8, align 4
  %116 = load i32, i32* %7, align 4
  %117 = sub nsw i32 %115, %116
  %118 = icmp slt i32 %114, %117
  br i1 %118, label %119, label %144

119:                                              ; preds = %113
  store i32 0, i32* %5, align 4
  br label %120

120:                                              ; preds = %137, %119
  %121 = load i32, i32* %5, align 4
  %122 = load i32, i32* %7, align 4
  %123 = icmp slt i32 %121, %122
  br i1 %123, label %124, label %140

124:                                              ; preds = %120
  %125 = load i32, i32* %5, align 4
  %126 = sext i32 %125 to i64
  %127 = getelementptr inbounds [100 x [100 x i32]], [100 x [100 x i32]]* %4, i64 0, i64 %126
  %128 = load i32, i32* %7, align 4
  %129 = load i32, i32* %5, align 4
  %130 = sub nsw i32 %128, %129
  %131 = load i32, i32* %9, align 4
  %132 = add nsw i32 %130, %131
  %133 = sext i32 %132 to i64
  %134 = getelementptr inbounds [100 x i32], [100 x i32]* %127, i64 0, i64 %133
  %135 = load i32, i32* %134, align 4
  %136 = call i32 (i8*, ...) @printf(i8* getelementptr inbounds ([4 x i8], [4 x i8]* @.str.2, i64 0, i64 0), i32 %135)
  br label %137

137:                                              ; preds = %124
  %138 = load i32, i32* %5, align 4
  %139 = add nsw i32 %138, 1
  store i32 %139, i32* %5, align 4
  br label %120

140:                                              ; preds = %120
  br label %141

141:                                              ; preds = %140
  %142 = load i32, i32* %9, align 4
  %143 = add nsw i32 %142, 1
  store i32 %143, i32* %9, align 4
  br label %113

144:                                              ; preds = %113
  br label %145

145:                                              ; preds = %144, %111
  store i32 1, i32* %9, align 4
  br label %146

146:                                              ; preds = %179, %145
  %147 = load i32, i32* %9, align 4
  %148 = load i32, i32* %7, align 4
  %149 = icmp slt i32 %147, %148
  br i1 %149, label %150, label %182

150:                                              ; preds = %146
  store i32 0, i32* %5, align 4
  br label %151

151:                                              ; preds = %175, %150
  %152 = load i32, i32* %5, align 4
  %153 = load i32, i32* %7, align 4
  %154 = load i32, i32* %9, align 4
  %155 = sub nsw i32 %153, %154
  %156 = icmp slt i32 %152, %155
  br i1 %156, label %157, label %178

157:                                              ; preds = %151
  %158 = load i32, i32* %2, align 4
  %159 = load i32, i32* %7, align 4
  %160 = sub nsw i32 %158, %159
  %161 = load i32, i32* %5, align 4
  %162 = add nsw i32 %160, %161
  %163 = load i32, i32* %9, align 4
  %164 = add nsw i32 %162, %163
  %165 = sext i32 %164 to i64
  %166 = getelementptr inbounds [100 x [100 x i32]], [100 x [100 x i32]]* %4, i64 0, i64 %165
  %167 = load i32, i32* %3, align 4
  %168 = load i32, i32* %5, align 4
  %169 = sub nsw i32 %167, %168
  %170 = sub nsw i32 %169, 1
  %171 = sext i32 %170 to i64
  %172 = getelementptr inbounds [100 x i32], [100 x i32]* %166, i64 0, i64 %171
  %173 = load i32, i32* %172, align 4
  %174 = call i32 (i8*, ...) @printf(i8* getelementptr inbounds ([4 x i8], [4 x i8]* @.str.2, i64 0, i64 0), i32 %173)
  br label %175

175:                                              ; preds = %157
  %176 = load i32, i32* %5, align 4
  %177 = add nsw i32 %176, 1
  store i32 %177, i32* %5, align 4
  br label %151

178:                                              ; preds = %151
  br label %179

179:                                              ; preds = %178
  %180 = load i32, i32* %9, align 4
  %181 = add nsw i32 %180, 1
  store i32 %181, i32* %9, align 4
  br label %146

182:                                              ; preds = %146
  ret i32 0
}

declare dso_local i32 @__isoc99_scanf(i8*, ...) #1

declare dso_local i32 @printf(i8*, ...) #1


!llvm.module.flags = !{!0}
!llvm.ident = !{!1}

!0 = !{i32 1, !"wchar_size", i32 4}
!1 = !{!"clang version 10.0.0-4ubuntu1 "}
